; Function Attrs: nounwind uwtable
define internal i32 @tt_cmap_unicode_char_index(ptr noundef %0, i32 noundef %1) #0 {
  %3 = load ptr, ptr %0, align 8
  %4 = getelementptr inbounds i8, ptr %3, i64 888
  %5 = load ptr, ptr %4, align 8
  %6 = getelementptr inbounds i8, ptr %5, i64 16
  %7 = load ptr, ptr %6, align 8
  %8 = tail call i32 %7(ptr noundef nonnull %0, i32 noundef %1) #26
  ret i32 %8
}